target datalayout = "e-m:e-p270:32:32-p271:32:32-p272:64:64-i64:64-i128:128-f80:128-n8:16:32:64-S128"
target triple = "x86_64-pc-linux-gnu"

%"class.std::__shared_count" = type { ptr }
%"struct.duckdb::TableFunctionData" = type { %"struct.duckdb::FunctionData", %"class.duckdb::vector" }
%"struct.duckdb::FunctionData" = type { ptr }
%"class.duckdb::vector" = type { %"class.std::vector" }
%"class.std::vector" = type { %"struct.std::_Vector_base" }
%"struct.std::_Vector_base" = type { %"struct.std::_Vector_base<unsigned long, std::allocator<unsigned long>>::_Vector_impl" }
%"struct.std::_Vector_base<unsigned long, std::allocator<unsigned long>>::_Vector_impl" = type { %"struct.std::_Vector_base<unsigned long, std::allocator<unsigned long>>::_Vector_impl_data" }
%"struct.std::_Vector_base<unsigned long, std::allocator<unsigned long>>::_Vector_impl_data" = type { ptr, ptr, ptr }
%"class.duckdb::vector.18" = type { %"class.std::vector.19" }
%"class.std::vector.19" = type { %"struct.std::_Vector_base.20" }
%"struct.std::_Vector_base.20" = type { %"struct.std::_Vector_base<duckdb::LogicalType, std::allocator<duckdb::LogicalType>>::_Vector_impl" }
%"struct.std::_Vector_base<duckdb::LogicalType, std::allocator<duckdb::LogicalType>>::_Vector_impl" = type { %"struct.std::_Vector_base<duckdb::LogicalType, std::allocator<duckdb::LogicalType>>::_Vector_impl_data" }
%"struct.std::_Vector_base<duckdb::LogicalType, std::allocator<duckdb::LogicalType>>::_Vector_impl_data" = type { ptr, ptr, ptr }
%"class.duckdb::vector.12" = type { %"class.std::vector.13" }
%"class.std::vector.13" = type { %"struct.std::_Vector_base.14" }
%"struct.std::_Vector_base.14" = type { %"struct.std::_Vector_base<std::__cxx11::basic_string<char>, std::allocator<std::__cxx11::basic_string<char>>>::_Vector_impl" }
%"struct.std::_Vector_base<std::__cxx11::basic_string<char>, std::allocator<std::__cxx11::basic_string<char>>>::_Vector_impl" = type { %"struct.std::_Vector_base<std::__cxx11::basic_string<char>, std::allocator<std::__cxx11::basic_string<char>>>::_Vector_impl_data" }
%"struct.std::_Vector_base<std::__cxx11::basic_string<char>, std::allocator<std::__cxx11::basic_string<char>>>::_Vector_impl_data" = type { ptr, ptr, ptr }
%"class.duckdb::shared_ptr.56" = type { %"class.std::shared_ptr.57" }
%"class.std::shared_ptr.57" = type { %"class.std::__shared_ptr.58" }
%"class.std::__shared_ptr.58" = type { ptr, %"class.std::__shared_count" }
%"class.duckdb::optional_idx" = type { i64 }
%"struct.duckdb::ParquetWriteBindData" = type <{ %"struct.duckdb::TableFunctionData", %"class.duckdb::vector.18", %"class.duckdb::vector.12", i32, [4 x i8], %"class.duckdb::vector.228", i64, i64, %"class.duckdb::shared_ptr.56", i8, [7 x i8], i64, i64, double, %"class.duckdb::optional_idx", %"struct.duckdb::ChildFieldIDs", i64, i8, [7 x i8] }>
%"class.duckdb::vector.228" = type { %"class.std::vector.229" }
%"class.std::vector.229" = type { %"struct.std::_Vector_base.230" }
%"struct.std::_Vector_base.230" = type { %"struct.std::_Vector_base<std::pair<std::__cxx11::basic_string<char>, std::__cxx11::basic_string<char>>, std::allocator<std::pair<std::__cxx11::basic_string<char>, std::__cxx11::basic_string<char>>>>::_Vector_impl" }
%"struct.std::_Vector_base<std::pair<std::__cxx11::basic_string<char>, std::__cxx11::basic_string<char>>, std::allocator<std::pair<std::__cxx11::basic_string<char>, std::__cxx11::basic_string<char>>>>::_Vector_impl" = type { %"struct.std::_Vector_base<std::pair<std::__cxx11::basic_string<char>, std::__cxx11::basic_string<char>>, std::allocator<std::pair<std::__cxx11::basic_string<char>, std::__cxx11::basic_string<char>>>>::_Vector_impl_data" }
%"struct.std::_Vector_base<std::pair<std::__cxx11::basic_string<char>, std::__cxx11::basic_string<char>>, std::allocator<std::pair<std::__cxx11::basic_string<char>, std::__cxx11::basic_string<char>>>>::_Vector_impl_data" = type { ptr, ptr, ptr }
%"struct.duckdb::ChildFieldIDs" = type { %"class.duckdb::unique_ptr.234" }
%"class.duckdb::unique_ptr.234" = type { %"class.std::unique_ptr.235" }
%"class.std::unique_ptr.235" = type { %"struct.std::__uniq_ptr_data.236" }
%"struct.std::__uniq_ptr_data.236" = type { %"class.std::__uniq_ptr_impl.237" }
%"class.std::__uniq_ptr_impl.237" = type { %"class.std::tuple.238" }
%"class.std::tuple.238" = type { %"struct.std::_Tuple_impl.239" }
%"struct.std::_Tuple_impl.239" = type { %"struct.std::_Head_base.242" }
%"struct.std::_Head_base.242" = type { ptr }

; Function Attrs: mustprogress nounwind uwtable
define linkonce_odr void @_ZN6duckdb16DynamicCastCheckINS_20ParquetWriteBindDataENS_12FunctionDataEEEvPKT0_(ptr noundef %0) #5 comdat {
  %2 = alloca ptr, align 8
  store ptr %0, ptr %2, align 8, !tbaa !120
  ret void
}

; Function Attrs: mustprogress nounwind uwtable
define linkonce_odr noundef zeroext i1 @_ZNK6duckdb12optional_idx7IsValidEv(ptr noundef nonnull align 8 dereferenceable(8) %0) #5 comdat align 2 {
  %2 = alloca ptr, align 8
  store ptr %0, ptr %2, align 8, !tbaa !399
  %3 = load ptr, ptr %2, align 8
  %4 = getelementptr inbounds nuw %"class.duckdb::optional_idx", ptr %3, i32 0, i32 0
  %5 = load i64, ptr %4, align 8, !tbaa !401
  %6 = icmp ne i64 %5, -1
  ret i1 %6
}

; Function Attrs: mustprogress nounwind uwtable
define linkonce_odr noundef nonnull align 8 dereferenceable(201) ptr @_ZN6duckdb12FunctionData4CastINS_20ParquetWriteBindDataEEERT_v(ptr noundef nonnull align 8 dereferenceable(8) %0) #5 comdat align 2 {
  %2 = alloca ptr, align 8
  store ptr %0, ptr %2, align 8, !tbaa !120
  %3 = load ptr, ptr %2, align 8
  call void @_ZN6duckdb16DynamicCastCheckINS_20ParquetWriteBindDataENS_12FunctionDataEEEvPKT0_(ptr noundef %3)
  ret ptr %3
}

; Function Attrs: mustprogress uwtable
define noundef zeroext i1 @_ZN6duckdb23ParquetWriteRotateFilesERNS_12FunctionDataERKNS_12optional_idxE(ptr noundef nonnull align 8 dereferenceable(8) %0, ptr noundef nonnull align 8 dereferenceable(8) %1) #4 {
  %3 = alloca ptr, align 8
  %4 = alloca ptr, align 8
  %5 = alloca ptr, align 8
  store ptr %0, ptr %3, align 8, !tbaa !120
  store ptr %1, ptr %4, align 8, !tbaa !399
  call void @llvm.lifetime.start.p0(i64 8, ptr %5) #3
  %6 = load ptr, ptr %3, align 8, !tbaa !120
  %7 = call noundef nonnull align 8 dereferenceable(201) ptr @_ZN6duckdb12FunctionData4CastINS_20ParquetWriteBindDataEEERT_v(ptr noundef nonnull align 8 dereferenceable(8) %6)
  store ptr %7, ptr %5, align 8, !tbaa !389
  %8 = load ptr, ptr %4, align 8, !tbaa !399
  %9 = call noundef zeroext i1 @_ZNK6duckdb12optional_idx7IsValidEv(ptr noundef nonnull align 8 dereferenceable(8) %8)
  br i1 %9, label %14, label %10

10:                                               ; preds = %2
  %11 = load ptr, ptr %5, align 8, !tbaa !389
  %12 = getelementptr inbounds nuw %"struct.duckdb::ParquetWriteBindData", ptr %11, i32 0, i32 14
  %13 = call noundef zeroext i1 @_ZNK6duckdb12optional_idx7IsValidEv(ptr noundef nonnull align 8 dereferenceable(8) %12)
  br label %14

14:                                               ; preds = %10, %2
  %15 = phi i1 [ true, %2 ], [ %13, %10 ]
  call void @llvm.lifetime.end.p0(i64 8, ptr %5) #3
  ret i1 %15
}