; Function Attrs: mustprogress nofree norecurse nosync nounwind willreturn memory(argmem: read) uwtable
define noundef zeroext i1 @_ZN6duckdb23ParquetWriteRotateFilesERNS_12FunctionDataERKNS_12optional_idxE(ptr noundef nonnull readonly align 8 captures(none) dereferenceable(8) %0, ptr noundef nonnull readonly align 8 captures(none) dereferenceable(8) %1) #11 {
  %3 = load i64, ptr %1, align 8, !tbaa !383
  %.not = icmp eq i64 %3, -1
  br i1 %.not, label %4, label %8

4:                                                ; preds = %2
  %5 = getelementptr inbounds nuw i8, ptr %0, i64 176
  %6 = load i64, ptr %5, align 8, !tbaa !383
  %7 = icmp ne i64 %6, -1
  br label %8

8:                                                ; preds = %4, %2
  %9 = phi i1 [ true, %2 ], [ %7, %4 ]
  ret i1 %9
}